target datalayout = "e-m:e-p270:32:32-p271:32:32-p272:64:64-i64:64-i128:128-f80:128-n8:16:32:64-S128"
target triple = "x86_64-pc-linux-gnu"

%"class.net::QuicDataWriter" = type { ptr, i64, i64 }
%"class.logging::CheckOpResult" = type { ptr }
%"class.logging::LogMessage" = type <{ i32, [4 x i8], %"class.std::__cxx11::basic_ostringstream", i64, ptr, i32, [4 x i8] }>
%"class.std::__cxx11::basic_ostringstream" = type { %"class.std::basic_ostream.base", %"class.std::__cxx11::basic_stringbuf", %"class.std::basic_ios" }
%"class.std::basic_ostream.base" = type { ptr }
%"class.std::__cxx11::basic_stringbuf" = type { %"class.std::basic_streambuf", i32, %"class.std::__cxx11::basic_string" }
%"class.std::basic_streambuf" = type { ptr, ptr, ptr, ptr, ptr, ptr, ptr, %"class.std::locale" }
%"class.std::locale" = type { ptr }
%"class.std::__cxx11::basic_string" = type { %"struct.std::__cxx11::basic_string<char>::_Alloc_hider", i64, %union.anon }
%"struct.std::__cxx11::basic_string<char>::_Alloc_hider" = type { ptr }
%union.anon = type { i64, [8 x i8] }
%"class.std::basic_ios" = type { %"class.std::ios_base", ptr, i8, i8, ptr, ptr, ptr, ptr }
%"class.std::ios_base" = type { ptr, i64, i64, i32, i32, i32, ptr, %"struct.std::ios_base::_Words", [8 x %"struct.std::ios_base::_Words"], i32, ptr, %"class.std::locale" }
%"struct.std::ios_base::_Words" = type { ptr, i64 }

@.str = private unnamed_addr constant [131 x i8] c"generated/home/dtcxzyw/WorkSpace/Projects/compilers/llvm-opt-benchmark/bench/libquic/libquic/src/net/quic/core/quic_data_writer.cc\00", align 1

; Function Attrs: mustprogress nounwind uwtable
define linkonce_odr noundef nonnull align 8 dereferenceable(8) ptr @_ZN7logging10LogMessage6streamEv(ptr noundef nonnull align 8 dereferenceable(404) %0) #0 comdat align 2 {
  %2 = alloca ptr, align 8
  store ptr %0, ptr %2, align 8, !tbaa !30
  %3 = load ptr, ptr %2, align 8
  %4 = getelementptr inbounds nuw %"class.logging::LogMessage", ptr %3, i32 0, i32 2
  ret ptr %4
}

; Function Attrs: mustprogress nounwind uwtable
define linkonce_odr noundef ptr @_ZN7logging13CheckOpResult7messageB5cxx11Ev(ptr noundef nonnull align 8 dereferenceable(8) %0) #0 comdat align 2 {
  %2 = alloca ptr, align 8
  store ptr %0, ptr %2, align 8, !tbaa !24
  %3 = load ptr, ptr %2, align 8
  %4 = getelementptr inbounds nuw %"class.logging::CheckOpResult", ptr %3, i32 0, i32 0
  %5 = load ptr, ptr %4, align 8, !tbaa !28
  ret ptr %5
}

; Function Attrs: mustprogress nounwind uwtable
define linkonce_odr noundef zeroext i1 @_ZNK7logging13CheckOpResultcvbEv(ptr noundef nonnull align 8 dereferenceable(8) %0) #0 comdat align 2 {
  %2 = alloca ptr, align 8
  store ptr %0, ptr %2, align 8, !tbaa !24
  %3 = load ptr, ptr %2, align 8
  %4 = getelementptr inbounds nuw %"class.logging::CheckOpResult", ptr %3, i32 0, i32 0
  %5 = load ptr, ptr %4, align 8, !tbaa !28
  %6 = icmp ne ptr %5, null
  %7 = xor i1 %6, true
  ret i1 %7
}

; Function Attrs: mustprogress nounwind uwtable
define linkonce_odr void @_ZN7logging13CheckOpResultC2EPNSt7__cxx1112basic_stringIcSt11char_traitsIcESaIcEEE(ptr noundef nonnull align 8 dereferenceable(8) %0, ptr noundef %1) unnamed_addr #0 comdat align 2 {
  %3 = alloca ptr, align 8
  %4 = alloca ptr, align 8
  store ptr %0, ptr %3, align 8, !tbaa !24
  store ptr %1, ptr %4, align 8, !tbaa !26
  %5 = load ptr, ptr %3, align 8
  %6 = getelementptr inbounds nuw %"class.logging::CheckOpResult", ptr %5, i32 0, i32 0
  %7 = load ptr, ptr %4, align 8, !tbaa !26
  store ptr %7, ptr %6, align 8, !tbaa !28
  ret void
}

; Function Attrs: mustprogress uwtable
define noundef ptr @_ZN3net14QuicDataWriter10BeginWriteEm(ptr noundef nonnull align 8 dereferenceable(24) %0, i64 noundef %1) #1 align 2 personality ptr @__gxx_personality_v0 {
  %3 = alloca ptr, align 8
  %4 = alloca ptr, align 8
  %5 = alloca i64, align 8
  %6 = alloca %"class.logging::CheckOpResult", align 8
  %7 = alloca %"class.logging::LogMessage", align 8
  %8 = alloca ptr, align 8
  %9 = alloca i32, align 4
  store ptr %0, ptr %4, align 8, !tbaa !3
  store i64 %1, ptr %5, align 8, !tbaa !8
  %10 = load ptr, ptr %4, align 8
  %11 = getelementptr inbounds nuw %"class.net::QuicDataWriter", ptr %10, i32 0, i32 2
  %12 = load i64, ptr %11, align 8, !tbaa !15
  %13 = getelementptr inbounds nuw %"class.net::QuicDataWriter", ptr %10, i32 0, i32 1
  %14 = load i64, ptr %13, align 8, !tbaa !14
  %15 = icmp ugt i64 %12, %14
  br i1 %15, label %16, label %17

16:                                               ; preds = %2
  store ptr null, ptr %3, align 8
  br label %43

17:                                               ; preds = %2
  %18 = getelementptr inbounds nuw %"class.net::QuicDataWriter", ptr %10, i32 0, i32 1
  %19 = load i64, ptr %18, align 8, !tbaa !14
  %20 = getelementptr inbounds nuw %"class.net::QuicDataWriter", ptr %10, i32 0, i32 2
  %21 = load i64, ptr %20, align 8, !tbaa !15
  %22 = sub i64 %19, %21
  %23 = load i64, ptr %5, align 8, !tbaa !8
  %24 = icmp ult i64 %22, %23
  br i1 %24, label %25, label %26

25:                                               ; preds = %17
  store ptr null, ptr %3, align 8
  br label %43

26:                                               ; preds = %17
  call void @llvm.lifetime.start.p0(i64 8, ptr %6) #7
  call void @_ZN7logging13CheckOpResultC2EPNSt7__cxx1112basic_stringIcSt11char_traitsIcESaIcEEE(ptr noundef nonnull align 8 dereferenceable(8) %6, ptr noundef null)
  %27 = call noundef zeroext i1 @_ZNK7logging13CheckOpResultcvbEv(ptr noundef nonnull align 8 dereferenceable(8) %6)
  br i1 %27, label %28, label %29

28:                                               ; preds = %26
  br label %37

29:                                               ; preds = %26
  call void @llvm.lifetime.start.p0(i64 408, ptr %7) #7
  %30 = call noundef ptr @_ZN7logging13CheckOpResult7messageB5cxx11Ev(ptr noundef nonnull align 8 dereferenceable(8) %6)
  call void @_ZN7logging10LogMessageC1EPKciiPNSt7__cxx1112basic_stringIcSt11char_traitsIcESaIcEEE(ptr noundef nonnull align 8 dereferenceable(404) %7, ptr noundef @.str, i32 noundef 106, i32 noundef 0, ptr noundef %30)
  %31 = invoke noundef nonnull align 8 dereferenceable(8) ptr @_ZN7logging10LogMessage6streamEv(ptr noundef nonnull align 8 dereferenceable(404) %7)
          to label %32 unwind label %33

32:                                               ; preds = %29
  call void @_ZN7logging10LogMessageD1Ev(ptr noundef nonnull align 8 dereferenceable(404) %7) #7
  call void @llvm.lifetime.end.p0(i64 408, ptr %7) #7
  br label %37

33:                                               ; preds = %29
  %34 = landingpad { ptr, i32 }
          cleanup
  %35 = extractvalue { ptr, i32 } %34, 0
  store ptr %35, ptr %8, align 8
  %36 = extractvalue { ptr, i32 } %34, 1
  store i32 %36, ptr %9, align 4
  call void @_ZN7logging10LogMessageD1Ev(ptr noundef nonnull align 8 dereferenceable(404) %7) #7
  call void @llvm.lifetime.end.p0(i64 408, ptr %7) #7
  call void @llvm.lifetime.end.p0(i64 8, ptr %6) #7
  br label %45

37:                                               ; preds = %32, %28
  call void @llvm.lifetime.end.p0(i64 8, ptr %6) #7
  %38 = getelementptr inbounds nuw %"class.net::QuicDataWriter", ptr %10, i32 0, i32 0
  %39 = load ptr, ptr %38, align 8, !tbaa !12
  %40 = getelementptr inbounds nuw %"class.net::QuicDataWriter", ptr %10, i32 0, i32 2
  %41 = load i64, ptr %40, align 8, !tbaa !15
  %42 = getelementptr inbounds nuw i8, ptr %39, i64 %41
  store ptr %42, ptr %3, align 8
  br label %43

43:                                               ; preds = %37, %25, %16
  %44 = load ptr, ptr %3, align 8
  ret ptr %44

45:                                               ; preds = %33
  %46 = load ptr, ptr %8, align 8
  %47 = load i32, ptr %9, align 4
  %48 = insertvalue { ptr, i32 } poison, ptr %46, 0
  %49 = insertvalue { ptr, i32 } %48, i32 %47, 1
  resume { ptr, i32 } %49
}

; Function Attrs: mustprogress uwtable
define noundef zeroext i1 @_ZN3net14QuicDataWriter17WriteRepeatedByteEhm(ptr noundef nonnull align 8 dereferenceable(24) %0, i8 noundef zeroext %1, i64 noundef %2) #1 align 2 {
  %4 = alloca i1, align 1
  %5 = alloca ptr, align 8
  %6 = alloca i8, align 1
  %7 = alloca i64, align 8
  %8 = alloca ptr, align 8
  %9 = alloca i32, align 4
  store ptr %0, ptr %5, align 8, !tbaa !3
  store i8 %1, ptr %6, align 1, !tbaa !16
  store i64 %2, ptr %7, align 8, !tbaa !8
  %10 = load ptr, ptr %5, align 8
  call void @llvm.lifetime.start.p0(i64 8, ptr %8) #7
  %11 = load i64, ptr %7, align 8, !tbaa !8
  %12 = call noundef ptr @_ZN3net14QuicDataWriter10BeginWriteEm(ptr noundef nonnull align 8 dereferenceable(24) %10, i64 noundef %11)
  store ptr %12, ptr %8, align 8, !tbaa !10
  %13 = load ptr, ptr %8, align 8, !tbaa !10
  %14 = icmp ne ptr %13, null
  br i1 %14, label %16, label %15

15:                                               ; preds = %3
  store i1 false, ptr %4, align 1
  store i32 1, ptr %9, align 4
  br label %26

16:                                               ; preds = %3
  %17 = load ptr, ptr %8, align 8, !tbaa !10
  %18 = load i8, ptr %6, align 1, !tbaa !16
  %19 = zext i8 %18 to i32
  %20 = trunc i32 %19 to i8
  %21 = load i64, ptr %7, align 8, !tbaa !8
  call void @llvm.memset.p0.i64(ptr align 1 %17, i8 %20, i64 %21, i1 false)
  %22 = load i64, ptr %7, align 8, !tbaa !8
  %23 = getelementptr inbounds nuw %"class.net::QuicDataWriter", ptr %10, i32 0, i32 2
  %24 = load i64, ptr %23, align 8, !tbaa !15
  %25 = add i64 %24, %22
  store i64 %25, ptr %23, align 8, !tbaa !15
  store i1 true, ptr %4, align 1
  store i32 1, ptr %9, align 4
  br label %26

26:                                               ; preds = %16, %15
  call void @llvm.lifetime.end.p0(i64 8, ptr %8) #7
  %27 = load i1, ptr %4, align 1
  ret i1 %27
}