; Function Attrs: mustprogress nofree norecurse nosync nounwind willreturn memory(write, argmem: readwrite, inaccessiblemem: none) uwtable
define noundef zeroext i1 @_ZN3net14QuicDataWriter17WriteRepeatedByteEhm(ptr noundef nonnull align 8 captures(none) dereferenceable(24) %0, i8 noundef zeroext %1, i64 noundef %2) local_unnamed_addr #3 align 2 personality ptr @__gxx_personality_v0 {
  %4 = getelementptr inbounds nuw i8, ptr %0, i64 16
  %5 = load i64, ptr %4, align 8, !tbaa !11
  %6 = getelementptr inbounds nuw i8, ptr %0, i64 8
  %7 = load i64, ptr %6, align 8, !tbaa !10
  %8 = icmp ugt i64 %5, %7
  %9 = sub nuw i64 %7, %5
  %10 = icmp ult i64 %9, %2
  %or.cond.i = select i1 %8, i1 true, i1 %10
  %11 = load ptr, ptr %0, align 8
  %12 = getelementptr inbounds nuw i8, ptr %11, i64 %5
  %.0.i = select i1 %or.cond.i, ptr null, ptr %12
  %.not = icmp ne ptr %.0.i, null
  br i1 %.not, label %13, label %16

13:                                               ; preds = %3
  tail call void @llvm.memset.p0.i64(ptr nonnull align 1 %.0.i, i8 %1, i64 %2, i1 false)
  %14 = load i64, ptr %4, align 8, !tbaa !11
  %15 = add i64 %14, %2
  store i64 %15, ptr %4, align 8, !tbaa !11
  br label %16

16:                                               ; preds = %3, %13
  ret i1 %.not
}